target datalayout = "e-m:e-p270:32:32-p271:32:32-p272:64:64-i64:64-i128:128-f80:128-n8:16:32:64-S128"
target triple = "x86_64-pc-linux-gnu"

@.str.58 = private unnamed_addr constant [9 x i8] c"ax25.pid\00", align 1

; Function Attrs: null_pointer_is_valid sspstrong uwtable
define internal zeroext i1 @capture_ax25(ptr noundef %0, i32 noundef %1, i32 noundef %2, ptr noundef %3, ptr noundef %4) #0 {
  %6 = alloca i1, align 1
  %7 = alloca ptr, align 8
  %8 = alloca i32, align 4
  %9 = alloca i32, align 4
  %10 = alloca ptr, align 8
  %11 = alloca ptr, align 8
  %12 = alloca i8, align 1
  %13 = alloca i8, align 1
  %14 = alloca i32, align 4
  %15 = alloca i32, align 4
  store ptr %0, ptr %7, align 8
  store i32 %1, ptr %8, align 4
  store i32 %2, ptr %9, align 4
  store ptr %3, ptr %10, align 8
  store ptr %4, ptr %11, align 8
  call void @llvm.lifetime.start.p0(i64 1, ptr %12) #6
  call void @llvm.lifetime.start.p0(i64 1, ptr %13) #6
  call void @llvm.lifetime.start.p0(i64 4, ptr %14) #6
  %16 = load i32, ptr %8, align 4
  %17 = add i32 %16, 15
  %18 = load i32, ptr %8, align 4
  %19 = icmp ugt i32 %17, %18
  br i1 %19, label %20, label %25

20:                                               ; preds = %5
  %21 = load i32, ptr %8, align 4
  %22 = add i32 %21, 15
  %23 = load i32, ptr %9, align 4
  %24 = icmp ule i32 %22, %23
  br i1 %24, label %26, label %25

25:                                               ; preds = %20, %5
  store i1 false, ptr %6, align 1
  store i32 1, ptr %15, align 4
  br label %79

26:                                               ; preds = %20
  %27 = load i32, ptr %8, align 4
  store i32 %27, ptr %14, align 4
  %28 = load i32, ptr %14, align 4
  %29 = add i32 %28, 7
  store i32 %29, ptr %14, align 4
  %30 = load i32, ptr %14, align 4
  %31 = add i32 %30, 7
  store i32 %31, ptr %14, align 4
  br label %32

32:                                               ; preds = %42, %26
  %33 = load ptr, ptr %7, align 8
  %34 = load i32, ptr %14, align 4
  %35 = sub i32 %34, 1
  %36 = sext i32 %35 to i64
  %37 = getelementptr i8, ptr %33, i64 %36
  %38 = load i8, ptr %37, align 1
  %39 = zext i8 %38 to i32
  %40 = and i32 %39, 1
  %41 = icmp eq i32 %40, 0
  br i1 %41, label %42, label %45

42:                                               ; preds = %32
  %43 = load i32, ptr %14, align 4
  %44 = add i32 %43, 7
  store i32 %44, ptr %14, align 4
  br label %32, !llvm.loop !10

45:                                               ; preds = %32
  %46 = load ptr, ptr %7, align 8
  %47 = load i32, ptr %14, align 4
  %48 = sext i32 %47 to i64
  %49 = getelementptr i8, ptr %46, i64 %48
  %50 = load i8, ptr %49, align 1
  store i8 %50, ptr %12, align 1
  %51 = load i8, ptr %12, align 1
  %52 = zext i8 %51 to i32
  %53 = and i32 %52, 1
  %54 = icmp eq i32 %53, 0
  br i1 %54, label %59, label %55

55:                                               ; preds = %45
  %56 = load i8, ptr %12, align 1
  %57 = zext i8 %56 to i32
  %58 = icmp eq i32 %57, 3
  br i1 %58, label %59, label %78

59:                                               ; preds = %55, %45
  %60 = load i32, ptr %14, align 4
  %61 = add i32 %60, 1
  store i32 %61, ptr %14, align 4
  %62 = load ptr, ptr %7, align 8
  %63 = load i32, ptr %14, align 4
  %64 = sext i32 %63 to i64
  %65 = getelementptr i8, ptr %62, i64 %64
  %66 = load i8, ptr %65, align 1
  store i8 %66, ptr %13, align 1
  %67 = load i32, ptr %14, align 4
  %68 = add i32 %67, 1
  store i32 %68, ptr %14, align 4
  %69 = load i8, ptr %13, align 1
  %70 = zext i8 %69 to i32
  %71 = and i32 %70, 255
  %72 = load ptr, ptr %7, align 8
  %73 = load i32, ptr %14, align 4
  %74 = load i32, ptr %9, align 4
  %75 = load ptr, ptr %10, align 8
  %76 = load ptr, ptr %11, align 8
  %77 = call zeroext i1 @try_capture_dissector(ptr noundef @.str.58, i32 noundef %71, ptr noundef %72, i32 noundef %73, i32 noundef %74, ptr noundef %75, ptr noundef %76)
  store i1 %77, ptr %6, align 1
  store i32 1, ptr %15, align 4
  br label %79

78:                                               ; preds = %55
  store i1 false, ptr %6, align 1
  store i32 1, ptr %15, align 4
  br label %79

79:                                               ; preds = %78, %59, %25
  call void @llvm.lifetime.end.p0(i64 4, ptr %14) #6
  call void @llvm.lifetime.end.p0(i64 1, ptr %13) #6
  call void @llvm.lifetime.end.p0(i64 1, ptr %12) #6
  %80 = load i1, ptr %6, align 1
  ret i1 %80
}