; Function Attrs: null_pointer_is_valid sspstrong uwtable
define internal zeroext i1 @capture_ax25(ptr noundef %0, i32 noundef %1, i32 noundef %2, ptr noundef %3, ptr noundef %4) #0 {
  %6 = icmp ugt i32 %1, -16
  %7 = add i32 %1, 15
  %.not = icmp ugt i32 %7, %2
  %or.cond30 = or i1 %6, %.not
  br i1 %or.cond30, label %33, label %8

8:                                                ; preds = %5
  %9 = add nuw i32 %1, 14
  br label %10

10:                                               ; preds = %10, %8
  %.0 = phi i32 [ %9, %8 ], [ %17, %10 ]
  %11 = add i32 %.0, -1
  %12 = sext i32 %11 to i64
  %13 = getelementptr i8, ptr %0, i64 %12
  %14 = load i8, ptr %13, align 1
  %15 = and i8 %14, 1
  %16 = icmp eq i8 %15, 0
  %17 = add i32 %.0, 7
  br i1 %16, label %10, label %18, !llvm.loop !10

18:                                               ; preds = %10
  %19 = sext i32 %.0 to i64
  %20 = getelementptr i8, ptr %0, i64 %19
  %21 = load i8, ptr %20, align 1
  %22 = and i8 %21, 1
  %23 = icmp eq i8 %22, 0
  %24 = icmp eq i8 %21, 3
  %or.cond = or i1 %24, %23
  br i1 %or.cond, label %25, label %33

25:                                               ; preds = %18
  %26 = add i32 %.0, 1
  %27 = sext i32 %26 to i64
  %28 = getelementptr i8, ptr %0, i64 %27
  %29 = load i8, ptr %28, align 1
  %30 = add i32 %.0, 2
  %31 = zext i8 %29 to i32
  %32 = tail call zeroext i1 @try_capture_dissector(ptr noundef nonnull @.str.58, i32 noundef %31, ptr noundef %0, i32 noundef %30, i32 noundef %2, ptr noundef %3, ptr noundef %4)
  br label %33

33:                                               ; preds = %18, %5, %25
  %.026 = phi i1 [ %32, %25 ], [ false, %5 ], [ false, %18 ]
  ret i1 %.026
}